; Function Attrs: mustprogress uwtable
define hidden noundef i32 @_ZN5o3dgc11SaveBinDataERKNS_6VectorIlEERNS_12BinaryStreamE(ptr noundef nonnull readonly align 8 captures(none) dereferenceable(24) %0, ptr noundef nonnull align 8 captures(none) dereferenceable(28) %1) local_unnamed_addr #0 {
  %3 = getelementptr inbounds nuw i8, ptr %1, i64 16
  %4 = load i64, ptr %3, align 8
  %5 = getelementptr inbounds nuw i8, ptr %1, i64 8
  br label %6

thread-pre-split:                                 ; preds = %_ZN5o3dgc6VectorIhE8PushBackERKh.exit.i
  %.pr = load i64, ptr %3, align 8
  br label %6

6:                                                ; preds = %thread-pre-split, %2
  %7 = phi i64 [ %.pr, %thread-pre-split ], [ %4, %2 ]
  %.06.i = phi i64 [ %22, %thread-pre-split ], [ 0, %2 ]
  %8 = load i64, ptr %5, align 8
  %9 = icmp eq i64 %7, %8
  br i1 %9, label %10, label %._crit_edge.i.i

._crit_edge.i.i:                                  ; preds = %6
  %.pre.i.i = load ptr, ptr %1, align 8
  br label %_ZN5o3dgc6VectorIhE8PushBackERKh.exit.i

10:                                               ; preds = %6
  %11 = shl i64 %7, 1
  %spec.select.i.i = tail call i64 @llvm.umax.i64(i64 %11, i64 32)
  store i64 %spec.select.i.i, ptr %5, align 8
  %12 = tail call noalias noundef nonnull ptr @_Znam(i64 noundef %spec.select.i.i) #8
  %.not.i.i = icmp eq i64 %7, 0
  br i1 %.not.i.i, label %17, label %13

13:                                               ; preds = %10
  %14 = load ptr, ptr %1, align 8
  tail call void @llvm.memcpy.p0.p0.i64(ptr nonnull align 1 %12, ptr align 1 %14, i64 %7, i1 false)
  %15 = icmp eq ptr %14, null
  br i1 %15, label %17, label %16

16:                                               ; preds = %13
  tail call void @_ZdaPv(ptr noundef nonnull %14) #9
  %.pre6.pre.i.i = load i64, ptr %3, align 8
  br label %17

17:                                               ; preds = %16, %13, %10
  %.pre6.i.i = phi i64 [ %7, %13 ], [ %.pre6.pre.i.i, %16 ], [ 0, %10 ]
  store ptr %12, ptr %1, align 8
  br label %_ZN5o3dgc6VectorIhE8PushBackERKh.exit.i

_ZN5o3dgc6VectorIhE8PushBackERKh.exit.i:          ; preds = %17, %._crit_edge.i.i
  %18 = phi i64 [ %7, %._crit_edge.i.i ], [ %.pre6.i.i, %17 ]
  %19 = phi ptr [ %.pre.i.i, %._crit_edge.i.i ], [ %12, %17 ]
  %20 = add i64 %18, 1
  store i64 %20, ptr %3, align 8
  %21 = getelementptr inbounds nuw i8, ptr %19, i64 %18
  store i8 0, ptr %21, align 1
  %22 = add nuw nsw i64 %.06.i, 1
  %exitcond.not.i = icmp eq i64 %22, 5
  br i1 %exitcond.not.i, label %_ZN5o3dgc12BinaryStream16WriteUInt32ASCIIEm.exit, label %thread-pre-split, !llvm.loop !3

_ZN5o3dgc12BinaryStream16WriteUInt32ASCIIEm.exit: ; preds = %_ZN5o3dgc6VectorIhE8PushBackERKh.exit.i
  %23 = getelementptr inbounds nuw i8, ptr %0, i64 16
  %24 = load i64, ptr %23, align 8
  br label %25

25:                                               ; preds = %_ZN5o3dgc6VectorIhE8PushBackERKh.exit.i28, %_ZN5o3dgc12BinaryStream16WriteUInt32ASCIIEm.exit
  %.06.i24 = phi i64 [ 0, %_ZN5o3dgc12BinaryStream16WriteUInt32ASCIIEm.exit ], [ %44, %_ZN5o3dgc6VectorIhE8PushBackERKh.exit.i28 ]
  %.045.i25 = phi i64 [ %24, %_ZN5o3dgc12BinaryStream16WriteUInt32ASCIIEm.exit ], [ %43, %_ZN5o3dgc6VectorIhE8PushBackERKh.exit.i28 ]
  %26 = trunc i64 %.045.i25 to i8
  %27 = and i8 %26, 127
  %28 = load i64, ptr %3, align 8
  %29 = load i64, ptr %5, align 8
  %30 = icmp eq i64 %28, %29
  br i1 %30, label %31, label %._crit_edge.i.i26

._crit_edge.i.i26:                                ; preds = %25
  %.pre.i.i27 = load ptr, ptr %1, align 8
  br label %_ZN5o3dgc6VectorIhE8PushBackERKh.exit.i28

31:                                               ; preds = %25
  %32 = shl i64 %28, 1
  %spec.select.i.i30 = tail call i64 @llvm.umax.i64(i64 %32, i64 32)
  store i64 %spec.select.i.i30, ptr %5, align 8
  %33 = tail call noalias noundef nonnull ptr @_Znam(i64 noundef %spec.select.i.i30) #8
  %.not.i.i31 = icmp eq i64 %28, 0
  br i1 %.not.i.i31, label %38, label %34

34:                                               ; preds = %31
  %35 = load ptr, ptr %1, align 8
  tail call void @llvm.memcpy.p0.p0.i64(ptr nonnull align 1 %33, ptr align 1 %35, i64 %28, i1 false)
  %36 = icmp eq ptr %35, null
  br i1 %36, label %38, label %37

37:                                               ; preds = %34
  tail call void @_ZdaPv(ptr noundef nonnull %35) #9
  %.pre6.pre.i.i32 = load i64, ptr %3, align 8
  br label %38

38:                                               ; preds = %37, %34, %31
  %.pre6.i.i33 = phi i64 [ %28, %34 ], [ %.pre6.pre.i.i32, %37 ], [ 0, %31 ]
  store ptr %33, ptr %1, align 8
  br label %_ZN5o3dgc6VectorIhE8PushBackERKh.exit.i28

_ZN5o3dgc6VectorIhE8PushBackERKh.exit.i28:        ; preds = %38, %._crit_edge.i.i26
  %39 = phi i64 [ %28, %._crit_edge.i.i26 ], [ %.pre6.i.i33, %38 ]
  %40 = phi ptr [ %.pre.i.i27, %._crit_edge.i.i26 ], [ %33, %38 ]
  %41 = add i64 %39, 1
  store i64 %41, ptr %3, align 8
  %42 = getelementptr inbounds nuw i8, ptr %40, i64 %39
  store i8 %27, ptr %42, align 1
  %43 = lshr i64 %.045.i25, 7
  %44 = add nuw nsw i64 %.06.i24, 1
  %exitcond.not.i29 = icmp eq i64 %44, 5
  br i1 %exitcond.not.i29, label %_ZN5o3dgc12BinaryStream16WriteUInt32ASCIIEm.exit34.preheader, label %25, !llvm.loop !3

_ZN5o3dgc12BinaryStream16WriteUInt32ASCIIEm.exit34.preheader: ; preds = %_ZN5o3dgc6VectorIhE8PushBackERKh.exit.i28
  %.not = icmp eq i64 %24, 0
  br i1 %.not, label %_ZN5o3dgc12BinaryStream16WriteUInt32ASCIIEm.exit34._crit_edge, label %.preheader

.preheader:                                       ; preds = %_ZN5o3dgc12BinaryStream16WriteUInt32ASCIIEm.exit34.preheader, %_ZN5o3dgc12BinaryStream15WriteUCharASCIIEh.exit
  %.02146 = phi i64 [ %78, %_ZN5o3dgc12BinaryStream15WriteUCharASCIIEh.exit ], [ 0, %_ZN5o3dgc12BinaryStream16WriteUInt32ASCIIEm.exit34.preheader ]
  %45 = load ptr, ptr %0, align 8
  br label %73

_ZN5o3dgc12BinaryStream16WriteUInt32ASCIIEm.exit34._crit_edge: ; preds = %_ZN5o3dgc12BinaryStream15WriteUCharASCIIEh.exit, %_ZN5o3dgc12BinaryStream16WriteUInt32ASCIIEm.exit34.preheader
  %46 = load i64, ptr %3, align 8
  %47 = sub i64 %46, %4
  br label %48

48:                                               ; preds = %48, %_ZN5o3dgc12BinaryStream16WriteUInt32ASCIIEm.exit34._crit_edge
  %.010.i = phi i64 [ 0, %_ZN5o3dgc12BinaryStream16WriteUInt32ASCIIEm.exit34._crit_edge ], [ %55, %48 ]
  %.069.i = phi i64 [ %47, %_ZN5o3dgc12BinaryStream16WriteUInt32ASCIIEm.exit34._crit_edge ], [ %54, %48 ]
  %.078.i = phi i64 [ %4, %_ZN5o3dgc12BinaryStream16WriteUInt32ASCIIEm.exit34._crit_edge ], [ %51, %48 ]
  %49 = trunc i64 %.069.i to i8
  %50 = and i8 %49, 127
  %51 = add i64 %.078.i, 1
  %52 = load ptr, ptr %1, align 8
  %53 = getelementptr inbounds nuw i8, ptr %52, i64 %.078.i
  store i8 %50, ptr %53, align 1
  %54 = lshr i64 %.069.i, 7
  %55 = add nuw nsw i64 %.010.i, 1
  %exitcond.not.i35 = icmp eq i64 %55, 5
  br i1 %exitcond.not.i35, label %_ZN5o3dgc12BinaryStream16WriteUInt32ASCIIEmm.exit, label %48, !llvm.loop !5

_ZN5o3dgc12BinaryStream16WriteUInt32ASCIIEmm.exit: ; preds = %48
  ret i32 0

56:                                               ; preds = %73
  %57 = trunc i64 %77 to i8
  %58 = load i64, ptr %3, align 8
  %59 = load i64, ptr %5, align 8
  %60 = icmp eq i64 %58, %59
  br i1 %60, label %61, label %._crit_edge.i.i36

._crit_edge.i.i36:                                ; preds = %56
  %.pre.i.i37 = load ptr, ptr %1, align 8
  br label %_ZN5o3dgc12BinaryStream15WriteUCharASCIIEh.exit

61:                                               ; preds = %56
  %62 = shl i64 %58, 1
  %spec.select.i.i39 = tail call i64 @llvm.umax.i64(i64 %62, i64 32)
  store i64 %spec.select.i.i39, ptr %5, align 8
  %63 = tail call noalias noundef nonnull ptr @_Znam(i64 noundef %spec.select.i.i39) #8
  %.not.i.i40 = icmp eq i64 %58, 0
  br i1 %.not.i.i40, label %68, label %64

64:                                               ; preds = %61
  %65 = load ptr, ptr %1, align 8
  tail call void @llvm.memcpy.p0.p0.i64(ptr nonnull align 1 %63, ptr align 1 %65, i64 %58, i1 false)
  %66 = icmp eq ptr %65, null
  br i1 %66, label %68, label %67

67:                                               ; preds = %64
  tail call void @_ZdaPv(ptr noundef nonnull %65) #9
  %.pre6.pre.i.i41 = load i64, ptr %3, align 8
  br label %68

68:                                               ; preds = %67, %64, %61
  %.pre6.i.i42 = phi i64 [ %58, %64 ], [ %.pre6.pre.i.i41, %67 ], [ 0, %61 ]
  store ptr %63, ptr %1, align 8
  br label %_ZN5o3dgc12BinaryStream15WriteUCharASCIIEh.exit

_ZN5o3dgc12BinaryStream15WriteUCharASCIIEh.exit:  ; preds = %._crit_edge.i.i36, %68
  %69 = phi i64 [ %58, %._crit_edge.i.i36 ], [ %.pre6.i.i42, %68 ]
  %70 = phi ptr [ %.pre.i.i37, %._crit_edge.i.i36 ], [ %63, %68 ]
  %71 = add i64 %69, 1
  store i64 %71, ptr %3, align 8
  %72 = getelementptr inbounds nuw i8, ptr %70, i64 %69
  store i8 %57, ptr %72, align 1
  br i1 %81, label %.preheader, label %_ZN5o3dgc12BinaryStream16WriteUInt32ASCIIEm.exit34._crit_edge, !llvm.loop !9

73:                                               ; preds = %.preheader, %73
  %.045 = phi i64 [ 0, %.preheader ], [ %79, %73 ]
  %.144 = phi i64 [ %.02146, %.preheader ], [ %78, %73 ]
  %.02243 = phi i64 [ 0, %.preheader ], [ %77, %73 ]
  %74 = getelementptr inbounds nuw i64, ptr %45, i64 %.144
  %75 = load i64, ptr %74, align 8
  %76 = shl i64 %75, %.045
  %77 = add nsw i64 %76, %.02243
  %78 = add nuw i64 %.144, 1
  %79 = add nuw nsw i64 %.045, 1
  %80 = icmp samesign ult i64 %.045, 6
  %81 = icmp ult i64 %78, %24
  %82 = select i1 %80, i1 %81, i1 false
  br i1 %82, label %73, label %56, !llvm.loop !10
}